target datalayout = "e-m:e-p270:32:32-p271:32:32-p272:64:64-i64:64-i128:128-f80:128-n8:16:32:64-S128"
target triple = "x86_64-pc-linux-gnu"

%struct.packing_data = type { ptr, ptr, i32, i32, ptr, i32, ptr, ptr, ptr, ptr, %union.pthread_mutex_t, ptr, i32, i32, i64, i64, ptr, ptr, ptr }
%union.pthread_mutex_t = type { %struct.__pthread_mutex_s }
%struct.__pthread_mutex_s = type { i32, i32, i32, i32, i32, i16, i16, %struct.__pthread_internal_list }
%struct.__pthread_internal_list = type { ptr, ptr }
%struct.object_id = type { [32 x i8], i32 }
%struct.object = type { i32, %struct.object_id }

@to_pack = internal global %struct.packing_data zeroinitializer, align 8
@the_repository = external global ptr, align 8

; Function Attrs: nounwind uwtable
define internal void @show_object__ma_allow_promisor(ptr noundef %0, ptr noundef %1, ptr noundef %2) #0 {
  %4 = alloca ptr, align 8
  %5 = alloca ptr, align 8
  %6 = alloca ptr, align 8
  store ptr %0, ptr %4, align 8, !tbaa !171
  store ptr %1, ptr %5, align 8, !tbaa !24
  store ptr %2, ptr %6, align 8, !tbaa !134
  %7 = load ptr, ptr @the_repository, align 8, !tbaa !11
  %8 = load ptr, ptr %4, align 8, !tbaa !171
  %9 = getelementptr inbounds nuw %struct.object, ptr %8, i32 0, i32 1
  %10 = call i32 @has_object(ptr noundef %7, ptr noundef %9, i32 noundef 0)
  %11 = icmp ne i32 %10, 0
  br i1 %11, label %19, label %12

12:                                               ; preds = %3
  %13 = load ptr, ptr @to_pack, align 8, !tbaa !222
  %14 = load ptr, ptr %4, align 8, !tbaa !171
  %15 = getelementptr inbounds nuw %struct.object, ptr %14, i32 0, i32 1
  %16 = call i32 @is_promisor_object(ptr noundef %13, ptr noundef %15)
  %17 = icmp ne i32 %16, 0
  br i1 %17, label %18, label %19

18:                                               ; preds = %12
  br label %23

19:                                               ; preds = %12, %3
  %20 = load ptr, ptr %4, align 8, !tbaa !171
  %21 = load ptr, ptr %5, align 8, !tbaa !24
  %22 = load ptr, ptr %6, align 8, !tbaa !134
  call void @show_object(ptr noundef %20, ptr noundef %21, ptr noundef %22)
  br label %23

23:                                               ; preds = %19, %18
  ret void
}