; Function Attrs: nounwind uwtable
define internal void @show_object__ma_allow_promisor(ptr noundef %0, ptr noundef %1, ptr readnone captures(none) %2) #0 {
  %4 = load ptr, ptr @the_repository, align 8, !tbaa !4
  %5 = getelementptr inbounds nuw i8, ptr %0, i64 4
  %6 = tail call i32 @has_object(ptr noundef %4, ptr noundef nonnull %5, i32 noundef 0) #25
  %.not = icmp eq i32 %6, 0
  br i1 %.not, label %7, label %10

7:                                                ; preds = %3
  %8 = load ptr, ptr @to_pack, align 8, !tbaa !133
  %9 = tail call i32 @is_promisor_object(ptr noundef %8, ptr noundef nonnull %5) #25
  %.not5 = icmp eq i32 %9, 0
  br i1 %.not5, label %10, label %11

10:                                               ; preds = %7, %3
  tail call void @show_object(ptr noundef nonnull %0, ptr noundef %1, ptr poison)
  br label %11

11:                                               ; preds = %7, %10
  ret void
}